(dp0
S'emailcert'
p1
S'/home/adeeb/Documents/university of cape town/hons/currrent/NIS/minimal-sec/keys/email/client/signer.pem'
p2
sS'ownpublic'
p3
S'/home/adeeb/Documents/university of cape town/hons/currrent/NIS/minimal-sec/keys/client/client.pub'
p4
sS'ownprivate'
p5
S'/home/adeeb/Documents/university of cape town/hons/currrent/NIS/minimal-sec/keys/client/client'
p6
sS'emailkey'
p7
S'/home/adeeb/Documents/university of cape town/hons/currrent/NIS/minimal-sec/keys/email/client/signer_privkey.pem'
p8
sS'serverpub'
p9
S'/home/adeeb/Documents/university of cape town/hons/currrent/NIS/minimal-sec/keys/client/server.pub'
p10
s.